; Function Attrs: mustprogress uwtable
define hidden void @_ZN7datalog7context13ensure_openedEv(ptr noundef nonnull align 8 dereferenceable(3556) %this) local_unnamed_addr #3 align 2 {
entry:
  %m_closed = getelementptr inbounds i8, ptr %this, i64 3512
  %0 = load i8, ptr %m_closed, align 8
  %1 = and i8 %0, 1
  %tobool.not = icmp eq i8 %1, 0
  br i1 %tobool.not, label %if.end, label %if.then

if.then:                                          ; preds = %entry
  %m_rule_set.i = getelementptr inbounds i8, ptr %this, i64 2888
  tail call void @_ZN7datalog8rule_set6reopenEv(ptr noundef nonnull align 8 dereferenceable(248) %m_rule_set.i)
  store i8 0, ptr %m_closed, align 8
  br label %if.end

if.end:                                           ; preds = %if.then, %entry
  ret void
}